; Function Attrs: mustprogress uwtable
define void @_ZN7rocksdb12BlockBuilder3AddERKNS_5SliceES3_PS2_(ptr noundef nonnull align 8 dereferenceable(176) %0, ptr noundef nonnull align 8 dereferenceable(16) %1, ptr noundef nonnull align 8 dereferenceable(16) %2, ptr noundef %3) local_unnamed_addr #1 align 2 personality ptr @__gxx_personality_v0 {
  %5 = alloca %"class.rocksdb::Slice", align 8
  call void @llvm.lifetime.start.p0(i64 16, ptr nonnull %5) #14
  %6 = getelementptr inbounds nuw i8, ptr %0, i64 96
  %7 = load ptr, ptr %6, align 8, !tbaa !44
  store ptr %7, ptr %5, align 8, !tbaa !52
  %8 = getelementptr inbounds nuw i8, ptr %5, i64 8
  %9 = getelementptr inbounds nuw i8, ptr %0, i64 104
  %10 = load i64, ptr %9, align 8, !tbaa !32
  store i64 %10, ptr %8, align 8, !tbaa !47
  %11 = getelementptr inbounds nuw i8, ptr %0, i64 32
  %12 = load i64, ptr %11, align 8, !tbaa !32
  call void @_ZN7rocksdb12BlockBuilder18AddWithLastKeyImplERKNS_5SliceES3_S3_PS2_m(ptr noundef nonnull align 8 dereferenceable(176) %0, ptr noundef nonnull align 8 dereferenceable(16) %1, ptr noundef nonnull align 8 dereferenceable(16) %2, ptr noundef nonnull align 8 dereferenceable(16) %5, ptr noundef %3, i64 noundef %12)
  call void @llvm.lifetime.end.p0(i64 16, ptr nonnull %5) #14
  %13 = getelementptr inbounds nuw i8, ptr %0, i64 4
  %14 = load i8, ptr %13, align 4, !tbaa !27, !range !45, !noundef !46
  %15 = trunc nuw i8 %14 to i1
  br i1 %15, label %16, label %22

16:                                               ; preds = %4
  %17 = load ptr, ptr %1, align 8, !tbaa !52
  %18 = getelementptr inbounds nuw i8, ptr %1, i64 8
  %19 = load i64, ptr %18, align 8, !tbaa !47
  %20 = load i64, ptr %9, align 8, !tbaa !32
  %21 = call noundef nonnull align 8 dereferenceable(32) ptr @_ZNSt7__cxx1112basic_stringIcSt11char_traitsIcESaIcEE10_M_replaceEmmPKcm(ptr noundef nonnull align 8 dereferenceable(32) %6, i64 noundef 0, i64 noundef %20, ptr noundef %17, i64 noundef %19)
  br label %22

22:                                               ; preds = %16, %4
  ret void
}